target datalayout = "e-m:e-p270:32:32-p271:32:32-p272:64:64-i64:64-i128:128-f80:128-n8:16:32:64-S128"
target triple = "x86_64-pc-linux-gnu"

%struct.ident_t = type { i32, i32, i32, i32, ptr }
%class.anon.330 = type { ptr, i8, ptr }

@1 = private unnamed_addr constant %struct.ident_t { i32 0, i32 514, i32 0, i32 22, ptr @0 }, align 8

; Function Attrs: inlinehint mustprogress ssp uwtable
define internal void @"_ZZZZN6open3d1t8geometry6kernel10pointcloud33EstimateNormalsFromCovariancesCPUERKNS_4core6TensorERS5_bENK3$_0clEvENKUlvE_clEvENKUllE_clEl"(ptr noundef nonnull align 8 dereferenceable(24) %0, i64 noundef %1) #3 align 2 {
  %3 = alloca ptr, align 8
  %4 = alloca i64, align 8
  %5 = alloca i32, align 4
  %6 = alloca i32, align 4
  %7 = alloca [3 x float], align 4
  store ptr %0, ptr %3, align 8, !tbaa !32
  store i64 %1, ptr %4, align 8, !tbaa !15
  %8 = load ptr, ptr %3, align 8
  call void @llvm.lifetime.start.p0(i64 4, ptr %5) #27
  %9 = load i64, ptr %4, align 8, !tbaa !15
  %10 = mul nsw i64 9, %9
  %11 = trunc i64 %10 to i32
  store i32 %11, ptr %5, align 4, !tbaa !47
  call void @llvm.lifetime.start.p0(i64 4, ptr %6) #27
  %12 = load i64, ptr %4, align 8, !tbaa !15
  %13 = mul nsw i64 3, %12
  %14 = trunc i64 %13 to i32
  store i32 %14, ptr %6, align 4, !tbaa !47
  call void @llvm.lifetime.start.p0(i64 12, ptr %7) #27
  call void @llvm.memset.p0.i64(ptr align 4 %7, i8 0, i64 12, i1 false)
  %15 = getelementptr inbounds nuw %class.anon.330, ptr %8, i32 0, i32 0
  %16 = load ptr, ptr %15, align 8, !tbaa !1822
  %17 = load i32, ptr %5, align 4, !tbaa !47
  %18 = sext i32 %17 to i64
  %19 = getelementptr inbounds float, ptr %16, i64 %18
  %20 = getelementptr inbounds [3 x float], ptr %7, i64 0, i64 0
  call void @_ZN6open3d1t8geometry6kernel10pointcloud40EstimatePointWiseNormalsWithFastEigen3x3IfEEvPKT_PS5_(ptr noundef %19, ptr noundef %20)
  %21 = getelementptr inbounds [3 x float], ptr %7, i64 0, i64 0
  %22 = load float, ptr %21, align 4, !tbaa !13
  %23 = getelementptr inbounds [3 x float], ptr %7, i64 0, i64 0
  %24 = load float, ptr %23, align 4, !tbaa !13
  %25 = getelementptr inbounds [3 x float], ptr %7, i64 0, i64 1
  %26 = load float, ptr %25, align 4, !tbaa !13
  %27 = getelementptr inbounds [3 x float], ptr %7, i64 0, i64 1
  %28 = load float, ptr %27, align 4, !tbaa !13
  %29 = fmul float %26, %28
  %30 = call float @llvm.fmuladd.f32(float %22, float %24, float %29)
  %31 = getelementptr inbounds [3 x float], ptr %7, i64 0, i64 2
  %32 = load float, ptr %31, align 4, !tbaa !13
  %33 = getelementptr inbounds [3 x float], ptr %7, i64 0, i64 2
  %34 = load float, ptr %33, align 4, !tbaa !13
  %35 = call float @llvm.fmuladd.f32(float %32, float %34, float %30)
  %36 = fpext float %35 to double
  %37 = fcmp oeq double %36, 0.000000e+00
  br i1 %37, label %38, label %46

38:                                               ; preds = %2
  %39 = getelementptr inbounds nuw %class.anon.330, ptr %8, i32 0, i32 1
  %40 = load i8, ptr %39, align 8, !tbaa !1825, !range !29, !noundef !30
  %41 = trunc i8 %40 to i1
  br i1 %41, label %46, label %42

42:                                               ; preds = %38
  %43 = getelementptr inbounds [3 x float], ptr %7, i64 0, i64 0
  store float 0.000000e+00, ptr %43, align 4, !tbaa !13
  %44 = getelementptr inbounds [3 x float], ptr %7, i64 0, i64 1
  store float 0.000000e+00, ptr %44, align 4, !tbaa !13
  %45 = getelementptr inbounds [3 x float], ptr %7, i64 0, i64 2
  store float 1.000000e+00, ptr %45, align 4, !tbaa !13
  br label %46

46:                                               ; preds = %42, %38, %2
  %47 = getelementptr inbounds nuw %class.anon.330, ptr %8, i32 0, i32 1
  %48 = load i8, ptr %47, align 8, !tbaa !1825, !range !29, !noundef !30
  %49 = trunc i8 %48 to i1
  br i1 %49, label %50, label %93

50:                                               ; preds = %46
  %51 = getelementptr inbounds nuw %class.anon.330, ptr %8, i32 0, i32 2
  %52 = load ptr, ptr %51, align 8, !tbaa !1826
  %53 = load i32, ptr %6, align 4, !tbaa !47
  %54 = sext i32 %53 to i64
  %55 = getelementptr inbounds float, ptr %52, i64 %54
  %56 = load float, ptr %55, align 4, !tbaa !13
  %57 = getelementptr inbounds [3 x float], ptr %7, i64 0, i64 0
  %58 = load float, ptr %57, align 4, !tbaa !13
  %59 = getelementptr inbounds nuw %class.anon.330, ptr %8, i32 0, i32 2
  %60 = load ptr, ptr %59, align 8, !tbaa !1826
  %61 = load i32, ptr %6, align 4, !tbaa !47
  %62 = add nsw i32 %61, 1
  %63 = sext i32 %62 to i64
  %64 = getelementptr inbounds float, ptr %60, i64 %63
  %65 = load float, ptr %64, align 4, !tbaa !13
  %66 = getelementptr inbounds [3 x float], ptr %7, i64 0, i64 1
  %67 = load float, ptr %66, align 4, !tbaa !13
  %68 = fmul float %65, %67
  %69 = call float @llvm.fmuladd.f32(float %56, float %58, float %68)
  %70 = getelementptr inbounds nuw %class.anon.330, ptr %8, i32 0, i32 2
  %71 = load ptr, ptr %70, align 8, !tbaa !1826
  %72 = load i32, ptr %6, align 4, !tbaa !47
  %73 = add nsw i32 %72, 2
  %74 = sext i32 %73 to i64
  %75 = getelementptr inbounds float, ptr %71, i64 %74
  %76 = load float, ptr %75, align 4, !tbaa !13
  %77 = getelementptr inbounds [3 x float], ptr %7, i64 0, i64 2
  %78 = load float, ptr %77, align 4, !tbaa !13
  %79 = call float @llvm.fmuladd.f32(float %76, float %78, float %69)
  %80 = fpext float %79 to double
  %81 = fcmp olt double %80, 0.000000e+00
  br i1 %81, label %82, label %92

82:                                               ; preds = %50
  %83 = getelementptr inbounds [3 x float], ptr %7, i64 0, i64 0
  %84 = load float, ptr %83, align 4, !tbaa !13
  %85 = fmul float %84, -1.000000e+00
  store float %85, ptr %83, align 4, !tbaa !13
  %86 = getelementptr inbounds [3 x float], ptr %7, i64 0, i64 1
  %87 = load float, ptr %86, align 4, !tbaa !13
  %88 = fmul float %87, -1.000000e+00
  store float %88, ptr %86, align 4, !tbaa !13
  %89 = getelementptr inbounds [3 x float], ptr %7, i64 0, i64 2
  %90 = load float, ptr %89, align 4, !tbaa !13
  %91 = fmul float %90, -1.000000e+00
  store float %91, ptr %89, align 4, !tbaa !13
  br label %92

92:                                               ; preds = %82, %50
  br label %93

93:                                               ; preds = %92, %46
  %94 = getelementptr inbounds [3 x float], ptr %7, i64 0, i64 0
  %95 = load float, ptr %94, align 4, !tbaa !13
  %96 = getelementptr inbounds nuw %class.anon.330, ptr %8, i32 0, i32 2
  %97 = load ptr, ptr %96, align 8, !tbaa !1826
  %98 = load i32, ptr %6, align 4, !tbaa !47
  %99 = sext i32 %98 to i64
  %100 = getelementptr inbounds float, ptr %97, i64 %99
  store float %95, ptr %100, align 4, !tbaa !13
  %101 = getelementptr inbounds [3 x float], ptr %7, i64 0, i64 1
  %102 = load float, ptr %101, align 4, !tbaa !13
  %103 = getelementptr inbounds nuw %class.anon.330, ptr %8, i32 0, i32 2
  %104 = load ptr, ptr %103, align 8, !tbaa !1826
  %105 = load i32, ptr %6, align 4, !tbaa !47
  %106 = add nsw i32 %105, 1
  %107 = sext i32 %106 to i64
  %108 = getelementptr inbounds float, ptr %104, i64 %107
  store float %102, ptr %108, align 4, !tbaa !13
  %109 = getelementptr inbounds [3 x float], ptr %7, i64 0, i64 2
  %110 = load float, ptr %109, align 4, !tbaa !13
  %111 = getelementptr inbounds nuw %class.anon.330, ptr %8, i32 0, i32 2
  %112 = load ptr, ptr %111, align 8, !tbaa !1826
  %113 = load i32, ptr %6, align 4, !tbaa !47
  %114 = add nsw i32 %113, 2
  %115 = sext i32 %114 to i64
  %116 = getelementptr inbounds float, ptr %112, i64 %115
  store float %110, ptr %116, align 4, !tbaa !13
  call void @llvm.lifetime.end.p0(i64 12, ptr %7) #27
  call void @llvm.lifetime.end.p0(i64 4, ptr %6) #27
  call void @llvm.lifetime.end.p0(i64 4, ptr %5) #27
  ret void
}

; Function Attrs: alwaysinline norecurse nounwind ssp uwtable
define internal void @"_ZN6open3d4core15ParallelForCPU_IZZZNS_1t8geometry6kernel10pointcloud33EstimateNormalsFromCovariancesCPUERKNS0_6TensorERS6_bENK3$_0clEvENKUlvE_clEvEUllE_EEvRKNS0_6DeviceElRKT_.omp_outlined"(ptr noalias noundef %0, ptr noalias noundef %1, ptr noundef nonnull align 8 dereferenceable(8) %2, ptr noundef nonnull align 8 dereferenceable(24) %3) #26 personality ptr @__gxx_personality_v0 {
  %5 = alloca ptr, align 8
  %6 = alloca ptr, align 8
  %7 = alloca ptr, align 8
  %8 = alloca ptr, align 8
  %9 = alloca ptr, align 8
  %10 = alloca i64, align 8
  %11 = alloca i64, align 8
  %12 = alloca i64, align 8
  %13 = alloca i64, align 8
  %14 = alloca i64, align 8
  %15 = alloca i64, align 8
  %16 = alloca i64, align 8
  %17 = alloca i32, align 4
  %18 = alloca i64, align 8
  store ptr %0, ptr %5, align 8, !tbaa !276
  store ptr %1, ptr %6, align 8, !tbaa !276
  store ptr %2, ptr %7, align 8, !tbaa !35
  store ptr %3, ptr %8, align 8, !tbaa !32
  %19 = load ptr, ptr %7, align 8, !tbaa !35
  %20 = load ptr, ptr %8, align 8, !tbaa !32
  store ptr %20, ptr %9, align 8
  call void @llvm.lifetime.start.p0(i64 8, ptr %10) #27
  call void @llvm.lifetime.start.p0(i64 8, ptr %11) #27
  %21 = load i64, ptr %19, align 8, !tbaa !15
  store i64 %21, ptr %11, align 8, !tbaa !15
  call void @llvm.lifetime.start.p0(i64 8, ptr %12) #27
  %22 = load i64, ptr %11, align 8, !tbaa !15
  %23 = sub nsw i64 %22, 0
  %24 = sdiv i64 %23, 1
  %25 = sub nsw i64 %24, 1
  store i64 %25, ptr %12, align 8, !tbaa !15
  call void @llvm.lifetime.start.p0(i64 8, ptr %13) #27
  store i64 0, ptr %13, align 8, !tbaa !15
  call void @llvm.lifetime.end.p0(i64 8, ptr %13) #27
  %26 = load i64, ptr %11, align 8, !tbaa !15
  %27 = icmp slt i64 0, %26
  br i1 %27, label %28, label %62

28:                                               ; preds = %4
  call void @llvm.lifetime.start.p0(i64 8, ptr %14) #27
  store i64 0, ptr %14, align 8, !tbaa !15
  call void @llvm.lifetime.start.p0(i64 8, ptr %15) #27
  %29 = load i64, ptr %12, align 8, !tbaa !15
  store i64 %29, ptr %15, align 8, !tbaa !15
  call void @llvm.lifetime.start.p0(i64 8, ptr %16) #27
  store i64 1, ptr %16, align 8, !tbaa !15
  call void @llvm.lifetime.start.p0(i64 4, ptr %17) #27
  store i32 0, ptr %17, align 4, !tbaa !47
  call void @llvm.lifetime.start.p0(i64 8, ptr %18) #27
  %30 = load ptr, ptr %5, align 8
  %31 = load i32, ptr %30, align 4, !tbaa !47
  call void @__kmpc_for_static_init_8(ptr @1, i32 %31, i32 34, ptr %17, ptr %14, ptr %15, ptr %16, i64 1, i64 1)
  %32 = load i64, ptr %15, align 8, !tbaa !15
  %33 = load i64, ptr %12, align 8, !tbaa !15
  %34 = icmp sgt i64 %32, %33
  br i1 %34, label %35, label %37

35:                                               ; preds = %28
  %36 = load i64, ptr %12, align 8, !tbaa !15
  br label %39

37:                                               ; preds = %28
  %38 = load i64, ptr %15, align 8, !tbaa !15
  br label %39

39:                                               ; preds = %37, %35
  %40 = phi i64 [ %36, %35 ], [ %38, %37 ]
  store i64 %40, ptr %15, align 8, !tbaa !15
  %41 = load i64, ptr %14, align 8, !tbaa !15
  store i64 %41, ptr %10, align 8, !tbaa !15
  br label %42

42:                                               ; preds = %55, %39
  %43 = load i64, ptr %10, align 8, !tbaa !15
  %44 = load i64, ptr %15, align 8, !tbaa !15
  %45 = icmp sle i64 %43, %44
  br i1 %45, label %47, label %46

46:                                               ; preds = %42
  br label %58

47:                                               ; preds = %42
  %48 = load i64, ptr %10, align 8, !tbaa !15
  %49 = mul nsw i64 %48, 1
  %50 = add nsw i64 0, %49
  store i64 %50, ptr %18, align 8, !tbaa !15
  %51 = load ptr, ptr %9, align 8, !tbaa !32
  %52 = load i64, ptr %18, align 8, !tbaa !15
  invoke void @"_ZZZZN6open3d1t8geometry6kernel10pointcloud33EstimateNormalsFromCovariancesCPUERKNS_4core6TensorERS5_bENK3$_0clEvENKUlvE_clEvENKUllE_clEl"(ptr noundef nonnull align 8 dereferenceable(24) %51, i64 noundef %52)
          to label %53 unwind label %63

53:                                               ; preds = %47
  br label %54

54:                                               ; preds = %53
  br label %55

55:                                               ; preds = %54
  %56 = load i64, ptr %10, align 8, !tbaa !15
  %57 = add nsw i64 %56, 1
  store i64 %57, ptr %10, align 8, !tbaa !15
  br label %42

58:                                               ; preds = %46
  br label %59

59:                                               ; preds = %58
  %60 = load ptr, ptr %5, align 8
  %61 = load i32, ptr %60, align 4, !tbaa !47
  call void @__kmpc_for_static_fini(ptr @1, i32 %61)
  call void @llvm.lifetime.end.p0(i64 8, ptr %18) #27
  call void @llvm.lifetime.end.p0(i64 4, ptr %17) #27
  call void @llvm.lifetime.end.p0(i64 8, ptr %16) #27
  call void @llvm.lifetime.end.p0(i64 8, ptr %15) #27
  call void @llvm.lifetime.end.p0(i64 8, ptr %14) #27
  br label %62

62:                                               ; preds = %59, %4
  call void @llvm.lifetime.end.p0(i64 8, ptr %12) #27
  call void @llvm.lifetime.end.p0(i64 8, ptr %11) #27
  call void @llvm.lifetime.end.p0(i64 8, ptr %10) #27
  ret void

63:                                               ; preds = %47
  %64 = landingpad { ptr, i32 }
          catch ptr null
  %65 = extractvalue { ptr, i32 } %64, 0
  call void @__clang_call_terminate(ptr %65) #31
  unreachable
}